opt subtitle "HI-TECH Software Omniscient Code Generator (Lite mode) build 6738"

opt pagewidth 120

	opt lm

	processor	16F877A
clrc	macro
	bcf	3,0
	endm
clrz	macro
	bcf	3,2
	endm
setc	macro
	bsf	3,0
	endm
setz	macro
	bsf	3,2
	endm
skipc	macro
	btfss	3,0
	endm
skipz	macro
	btfss	3,2
	endm
skipnc	macro
	btfsc	3,0
	endm
skipnz	macro
	btfsc	3,2
	endm
indf	equ	0
indf0	equ	0
pc	equ	2
pcl	equ	2
status	equ	3
fsr	equ	4
fsr0	equ	4
c	equ	1
z	equ	0
pclath	equ	10
	FNCALL	_main,_adc_init
	FNCALL	_main,_lcd_init
	FNCALL	_main,_command
	FNCALL	_main,_lcd_display
	FNCALL	_main,_serial_init
	FNCALL	_main,_gsm_init
	FNCALL	_main,_adc_conversion
	FNCALL	_main,_hexa_val
	FNCALL	_main,_gprs
	FNCALL	_gprs,_serial_display
	FNCALL	_gprs,_serial_out
	FNCALL	_hexa_val,___lwdiv
	FNCALL	_hexa_val,___lwmod
	FNCALL	_hexa_val,_lcd_data
	FNCALL	_gsm_init,_serial_display
	FNCALL	_gsm_init,_serial_out
	FNCALL	_lcd_display,_lcd_data
	FNCALL	_lcd_init,_command
	FNCALL	_serial_display,_serial_out
	FNROOT	_main
	global	_a
	global	_c
	global	_d
	global	_k
	global	_l
	global	_m
	global	_n
	global	_b
	global	_j
	global	_ADCON0
psect	text298,local,class=CODE,delta=2
global __ptext298
__ptext298:
_ADCON0	set	31
	global	_ADRESH
_ADRESH	set	30
	global	_PORTA
_PORTA	set	5
	global	_PORTC
_PORTC	set	7
	global	_PORTD
_PORTD	set	8
	global	_TXREG
_TXREG	set	25
	global	_ADGO
_ADGO	set	250
	global	_CREN
_CREN	set	196
	global	_GIE
_GIE	set	95
	global	_PEIE
_PEIE	set	94
	global	_RA2
_RA2	set	42
	global	_RA3
_RA3	set	43
	global	_SPEN
_SPEN	set	199
	global	_TXIF
_TXIF	set	100
	global	_ADCON1
_ADCON1	set	159
	global	_ADRESL
_ADRESL	set	158
	global	_SPBRG
_SPBRG	set	153
	global	_TRISA
_TRISA	set	133
	global	_TRISC
_TRISC	set	135
	global	_TRISD
_TRISD	set	136
	global	_BRGH
_BRGH	set	1218
	global	_RCIE
_RCIE	set	1125
	global	_SYNC
_SYNC	set	1220
	global	_TXEN
_TXEN	set	1221
psect	strings,class=STRING,delta=2
global __pstrings
__pstrings:
;	global	stringdir,stringtab,__stringbase
stringtab:
;	String table - string pointers are 1 byte each
stringcode:stringdir:
movlw high(stringdir)
movwf pclath
movf fsr,w
incf fsr
	addwf pc
__stringbase:
	retlw	0
psect	strings
	
STR_10:	
	retlw	107	;'k'
	retlw	114	;'r'
	retlw	105	;'i'
	retlw	115	;'s'
	retlw	104	;'h'
	retlw	116	;'t'
	retlw	101	;'e'
	retlw	99	;'c'
	retlw	46	;'.'
	retlw	99	;'c'
	retlw	111	;'o'
	retlw	46	;'.'
	retlw	105	;'i'
	retlw	110	;'n'
	retlw	47	;'/'
	retlw	109	;'m'
	retlw	50	;'2'
	retlw	109	;'m'
	retlw	63	;'?'
	retlw	83	;'S'
	retlw	61	;'='
	retlw	0
psect	strings
	
STR_13:	
	retlw	65	;'A'
	retlw	84	;'T'
	retlw	43	;'+'
	retlw	72	;'H'
	retlw	84	;'T'
	retlw	84	;'T'
	retlw	80	;'P'
	retlw	65	;'A'
	retlw	67	;'C'
	retlw	84	;'T'
	retlw	73	;'I'
	retlw	79	;'O'
	retlw	78	;'N'
	retlw	61	;'='
	retlw	49	;'1'
	retlw	0
psect	strings
	
STR_6:	
	retlw	65	;'A'
	retlw	84	;'T'
	retlw	43	;'+'
	retlw	83	;'S'
	retlw	65	;'A'
	retlw	80	;'P'
	retlw	66	;'B'
	retlw	82	;'R'
	retlw	61	;'='
	retlw	49	;'1'
	retlw	44	;','
	retlw	49	;'1'
	retlw	0
psect	strings
	
STR_8:	
	retlw	65	;'A'
	retlw	84	;'T'
	retlw	43	;'+'
	retlw	72	;'H'
	retlw	84	;'T'
	retlw	84	;'T'
	retlw	80	;'P'
	retlw	80	;'P'
	retlw	65	;'A'
	retlw	82	;'R'
	retlw	65	;'A'
	retlw	61	;'='
	retlw	0
psect	strings
	
STR_7:	
	retlw	65	;'A'
	retlw	84	;'T'
	retlw	43	;'+'
	retlw	72	;'H'
	retlw	84	;'T'
	retlw	84	;'T'
	retlw	80	;'P'
	retlw	73	;'I'
	retlw	78	;'N'
	retlw	73	;'I'
	retlw	84	;'T'
	retlw	0
psect	strings
	
STR_5:	
	retlw	65	;'A'
	retlw	84	;'T'
	retlw	43	;'+'
	retlw	67	;'C'
	retlw	82	;'R'
	retlw	69	;'E'
	retlw	71	;'G'
	retlw	63	;'?'
	retlw	0
psect	strings
	
STR_1:	
	retlw	84	;'T'
	retlw	69	;'E'
	retlw	77	;'M'
	retlw	80	;'P'
	retlw	58	;':'
	retlw	0
psect	strings
	
STR_12:	
	retlw	67	;'C'
	retlw	73	;'I'
	retlw	68	;'D'
	retlw	0
psect	strings
	
STR_9:	
	retlw	85	;'U'
	retlw	82	;'R'
	retlw	76	;'L'
	retlw	0
psect	strings
	
STR_2:	
	retlw	68	;'D'
	retlw	101	;'e'
	retlw	103	;'g'
	retlw	0
psect	strings
	
STR_3:	
	retlw	65	;'A'
	retlw	84	;'T'
	retlw	0
psect	strings
STR_4	equ	STR_3+0
STR_11	equ	STR_8+0
	file	"iot_temp.as"
	line	#
psect cinit,class=CODE,delta=2
global start_initialization
start_initialization:

psect	bssCOMMON,class=COMMON,space=1
global __pbssCOMMON
__pbssCOMMON:
_b:
       ds      2

_j:
       ds      2

psect	bssBANK0,class=BANK0,space=1
global __pbssBANK0
__pbssBANK0:
_a:
       ds      2

_c:
       ds      2

_d:
       ds      2

_k:
       ds      2

_l:
       ds      2

_m:
       ds      2

_n:
       ds      2

; Clear objects allocated to COMMON
psect cinit,class=CODE,delta=2
	clrf	((__pbssCOMMON)+0)&07Fh
	clrf	((__pbssCOMMON)+1)&07Fh
	clrf	((__pbssCOMMON)+2)&07Fh
	clrf	((__pbssCOMMON)+3)&07Fh
; Clear objects allocated to BANK0
psect cinit,class=CODE,delta=2
	clrf	((__pbssBANK0)+0)&07Fh
	clrf	((__pbssBANK0)+1)&07Fh
	clrf	((__pbssBANK0)+2)&07Fh
	clrf	((__pbssBANK0)+3)&07Fh
	clrf	((__pbssBANK0)+4)&07Fh
	clrf	((__pbssBANK0)+5)&07Fh
	clrf	((__pbssBANK0)+6)&07Fh
	clrf	((__pbssBANK0)+7)&07Fh
	clrf	((__pbssBANK0)+8)&07Fh
	clrf	((__pbssBANK0)+9)&07Fh
	clrf	((__pbssBANK0)+10)&07Fh
	clrf	((__pbssBANK0)+11)&07Fh
	clrf	((__pbssBANK0)+12)&07Fh
	clrf	((__pbssBANK0)+13)&07Fh
psect cinit,class=CODE,delta=2
global end_of_initialization

;End of C runtime variable initialization code

end_of_initialization:
clrf status
ljmp _main	;jump to C main() function
psect	cstackCOMMON,class=COMMON,space=1
global __pcstackCOMMON
__pcstackCOMMON:
	global	?_adc_init
?_adc_init:	; 0 bytes @ 0x0
	global	??_adc_init
??_adc_init:	; 0 bytes @ 0x0
	global	?_lcd_init
?_lcd_init:	; 0 bytes @ 0x0
	global	?_command
?_command:	; 0 bytes @ 0x0
	global	??_command
??_command:	; 0 bytes @ 0x0
	global	?_lcd_display
?_lcd_display:	; 0 bytes @ 0x0
	global	?_serial_init
?_serial_init:	; 0 bytes @ 0x0
	global	??_serial_init
??_serial_init:	; 0 bytes @ 0x0
	global	?_gsm_init
?_gsm_init:	; 0 bytes @ 0x0
	global	?_adc_conversion
?_adc_conversion:	; 0 bytes @ 0x0
	global	??_adc_conversion
??_adc_conversion:	; 0 bytes @ 0x0
	global	?_gprs
?_gprs:	; 0 bytes @ 0x0
	global	?_serial_display
?_serial_display:	; 0 bytes @ 0x0
	global	?_serial_out
?_serial_out:	; 0 bytes @ 0x0
	global	??_serial_out
??_serial_out:	; 0 bytes @ 0x0
	global	?_lcd_data
?_lcd_data:	; 0 bytes @ 0x0
	global	??_lcd_data
??_lcd_data:	; 0 bytes @ 0x0
	global	?_main
?_main:	; 0 bytes @ 0x0
	global	?___lwdiv
?___lwdiv:	; 2 bytes @ 0x0
	global	?___lwmod
?___lwmod:	; 2 bytes @ 0x0
	global	serial_out@z
serial_out@z:	; 1 bytes @ 0x0
	global	___lwdiv@divisor
___lwdiv@divisor:	; 2 bytes @ 0x0
	global	___lwmod@divisor
___lwmod@divisor:	; 2 bytes @ 0x0
	ds	1
	global	??_serial_display
??_serial_display:	; 0 bytes @ 0x1
	ds	1
	global	serial_display@w
serial_display@w:	; 1 bytes @ 0x2
	global	command@com
command@com:	; 1 bytes @ 0x2
	global	lcd_data@D
lcd_data@D:	; 1 bytes @ 0x2
	global	___lwdiv@dividend
___lwdiv@dividend:	; 2 bytes @ 0x2
	global	___lwmod@dividend
___lwmod@dividend:	; 2 bytes @ 0x2
	ds	1
	global	??_lcd_init
??_lcd_init:	; 0 bytes @ 0x3
	global	??_lcd_display
??_lcd_display:	; 0 bytes @ 0x3
	global	??_gsm_init
??_gsm_init:	; 0 bytes @ 0x3
	global	??_gprs
??_gprs:	; 0 bytes @ 0x3
	ds	1
	global	??___lwdiv
??___lwdiv:	; 0 bytes @ 0x4
	global	??___lwmod
??___lwmod:	; 0 bytes @ 0x4
	ds	1
	global	lcd_display@word
lcd_display@word:	; 1 bytes @ 0x5
	global	___lwmod@counter
___lwmod@counter:	; 1 bytes @ 0x5
	global	___lwdiv@quotient
___lwdiv@quotient:	; 2 bytes @ 0x5
	ds	2
	global	___lwdiv@counter
___lwdiv@counter:	; 1 bytes @ 0x7
	ds	1
	global	?_hexa_val
?_hexa_val:	; 0 bytes @ 0x8
	global	hexa_val@val
hexa_val@val:	; 2 bytes @ 0x8
	ds	2
	global	??_hexa_val
??_hexa_val:	; 0 bytes @ 0xA
	global	??_main
??_main:	; 0 bytes @ 0xA
;;Data sizes: Strings 106, constant 0, data 0, bss 18, persistent 0 stack 0
;;Auto spaces:   Size  Autos    Used
;; COMMON          14     10      14
;; BANK0           80      0      14
;; BANK1           80      0       0
;; BANK3           96      0       0
;; BANK2           96      0       0

;;
;; Pointer list with targets:

;; ?___lwmod	unsigned int  size(1) Largest target is 0
;;
;; ?___lwdiv	unsigned int  size(1) Largest target is 0
;;
;; lcd_display@word	PTR const unsigned char  size(1) Largest target is 6
;;		 -> STR_2(CODE[4]), STR_1(CODE[6]), 
;;
;; serial_display@w	PTR const unsigned char  size(1) Largest target is 22
;;		 -> STR_13(CODE[16]), STR_12(CODE[4]), STR_11(CODE[13]), STR_10(CODE[22]), 
;;		 -> STR_9(CODE[4]), STR_8(CODE[13]), STR_7(CODE[12]), STR_6(CODE[13]), 
;;		 -> STR_5(CODE[9]), STR_4(CODE[3]), STR_3(CODE[3]), 
;;


;;
;; Critical Paths under _main in COMMON
;;
;;   _main->_hexa_val
;;   _gprs->_serial_display
;;   _hexa_val->___lwdiv
;;   _gsm_init->_serial_display
;;   _lcd_display->_lcd_data
;;   _lcd_init->_command
;;   _serial_display->_serial_out
;;
;; Critical Paths under _main in BANK0
;;
;;   None.
;;
;; Critical Paths under _main in BANK1
;;
;;   None.
;;
;; Critical Paths under _main in BANK3
;;
;;   None.
;;
;; Critical Paths under _main in BANK2
;;
;;   None.

;;
;;Main: autosize = 0, tempsize = 0, incstack = 0, save=0
;;

;;
;;Call Graph Tables:
;;
;; ---------------------------------------------------------------------------------
;; (Depth) Function   	        Calls       Base Space   Used Autos Params    Refs
;; ---------------------------------------------------------------------------------
;; (0) _main                                                 0     0      0     676
;;                           _adc_init
;;                           _lcd_init
;;                            _command
;;                        _lcd_display
;;                        _serial_init
;;                           _gsm_init
;;                     _adc_conversion
;;                           _hexa_val
;;                               _gprs
;; ---------------------------------------------------------------------------------
;; (1) _gprs                                                 3     3      0      89
;;                                              3 COMMON     3     3      0
;;                     _serial_display
;;                         _serial_out
;; ---------------------------------------------------------------------------------
;; (1) _hexa_val                                             2     0      2     387
;;                                              8 COMMON     2     0      2
;;                            ___lwdiv
;;                            ___lwmod
;;                           _lcd_data
;; ---------------------------------------------------------------------------------
;; (1) _gsm_init                                             3     3      0      89
;;                                              3 COMMON     3     3      0
;;                     _serial_display
;;                         _serial_out
;; ---------------------------------------------------------------------------------
;; (1) _lcd_display                                          3     3      0      67
;;                                              3 COMMON     3     3      0
;;                           _lcd_data
;; ---------------------------------------------------------------------------------
;; (1) _lcd_init                                             0     0      0      22
;;                            _command
;; ---------------------------------------------------------------------------------
;; (2) _lcd_data                                             3     3      0      22
;;                                              0 COMMON     3     3      0
;; ---------------------------------------------------------------------------------
;; (2) _serial_display                                       2     2      0      67
;;                                              1 COMMON     2     2      0
;;                         _serial_out
;; ---------------------------------------------------------------------------------
;; (1) _command                                              3     3      0      22
;;                                              0 COMMON     3     3      0
;; ---------------------------------------------------------------------------------
;; (2) ___lwmod                                              6     2      4     159
;;                                              0 COMMON     6     2      4
;; ---------------------------------------------------------------------------------
;; (2) ___lwdiv                                              8     4      4     162
;;                                              0 COMMON     8     4      4
;; ---------------------------------------------------------------------------------
;; (2) _serial_out                                           1     1      0      22
;;                                              0 COMMON     1     1      0
;; ---------------------------------------------------------------------------------
;; (1) _adc_conversion                                       2     2      0       0
;;                                              0 COMMON     2     2      0
;; ---------------------------------------------------------------------------------
;; (1) _serial_init                                          0     0      0       0
;; ---------------------------------------------------------------------------------
;; (1) _adc_init                                             0     0      0       0
;; ---------------------------------------------------------------------------------
;; Estimated maximum stack depth 2
;; ---------------------------------------------------------------------------------

;; Call Graph Graphs:

;; _main (ROOT)
;;   _adc_init
;;   _lcd_init
;;     _command
;;   _command
;;   _lcd_display
;;     _lcd_data
;;   _serial_init
;;   _gsm_init
;;     _serial_display
;;       _serial_out
;;     _serial_out
;;   _adc_conversion
;;   _hexa_val
;;     ___lwdiv
;;     ___lwmod
;;     _lcd_data
;;   _gprs
;;     _serial_display
;;       _serial_out
;;     _serial_out
;;

;; Address spaces:

;;Name               Size   Autos  Total    Cost      Usage
;;BITCOMMON            E      0       0       0        0.0%
;;EEDATA             100      0       0       0        0.0%
;;NULL                 0      0       0       0        0.0%
;;CODE                 0      0       0       0        0.0%
;;COMMON               E      A       E       1      100.0%
;;BITSFR0              0      0       0       1        0.0%
;;SFR0                 0      0       0       1        0.0%
;;BITSFR1              0      0       0       2        0.0%
;;SFR1                 0      0       0       2        0.0%
;;STACK                0      0       3       2        0.0%
;;ABS                  0      0      1C       3        0.0%
;;BITBANK0            50      0       0       4        0.0%
;;BITSFR3              0      0       0       4        0.0%
;;SFR3                 0      0       0       4        0.0%
;;BANK0               50      0       E       5       17.5%
;;BITSFR2              0      0       0       5        0.0%
;;SFR2                 0      0       0       5        0.0%
;;BITBANK1            50      0       0       6        0.0%
;;BANK1               50      0       0       7        0.0%
;;BITBANK3            60      0       0       8        0.0%
;;BANK3               60      0       0       9        0.0%
;;BITBANK2            60      0       0      10        0.0%
;;BANK2               60      0       0      11        0.0%
;;DATA                 0      0      1F      12        0.0%

	global	_main
psect	maintext,global,class=CODE,delta=2
global __pmaintext
__pmaintext:

;; *************** function _main *****************
;; Defined at:
;;		line 24 in file "C:\Users\ASHOK\Desktop\7 days Workshop\2nd Day\Session 3\PROGRAMS\11.ToT based temperature monitoring\main.c"
;; Parameters:    Size  Location     Type
;;		None
;; Auto vars:     Size  Location     Type
;;		None
;; Return value:  Size  Location     Type
;;		None               void
;; Registers used:
;;		wreg, fsr0l, fsr0h, status,2, status,0, btemp+1, pclath, cstack
;; Tracked objects:
;;		On entry : 17F/0
;;		On exit  : 0/0
;;		Unchanged: 0/0
;; Data sizes:     COMMON   BANK0   BANK1   BANK3   BANK2
;;      Params:         0       0       0       0       0
;;      Locals:         0       0       0       0       0
;;      Temps:          0       0       0       0       0
;;      Totals:         0       0       0       0       0
;;Total ram usage:        0 bytes
;; Hardware stack levels required when called:    3
;; This function calls:
;;		_adc_init
;;		_lcd_init
;;		_command
;;		_lcd_display
;;		_serial_init
;;		_gsm_init
;;		_adc_conversion
;;		_hexa_val
;;		_gprs
;; This function is called by:
;;		Startup code after reset
;; This function uses a non-reentrant model
;;
psect	maintext
	file	"C:\Users\ASHOK\Desktop\7 days Workshop\2nd Day\Session 3\PROGRAMS\11.ToT based temperature monitoring\main.c"
	line	24
	global	__size_of_main
	__size_of_main	equ	__end_of_main-_main
	
_main:	
	opt	stack 5
; Regs used in _main: [wreg-fsr0h+status,2+status,0+btemp+1+pclath+cstack]
	line	25
	
l2261:	
;main.c: 25: TRISA=0x01;
	movlw	(01h)
	bsf	status, 5	;RP0=1, select bank1
	bcf	status, 6	;RP1=0, select bank1
	movwf	(133)^080h	;volatile
	line	26
	
l2263:	
;main.c: 26: PORTA=0x00;
	bcf	status, 5	;RP0=0, select bank0
	bcf	status, 6	;RP1=0, select bank0
	clrf	(5)	;volatile
	line	27
	
l2265:	
;main.c: 27: TRISD=0x00;
	bsf	status, 5	;RP0=1, select bank1
	bcf	status, 6	;RP1=0, select bank1
	clrf	(136)^080h	;volatile
	line	28
	
l2267:	
;main.c: 28: PORTD=0x00;
	bcf	status, 5	;RP0=0, select bank0
	bcf	status, 6	;RP1=0, select bank0
	clrf	(8)	;volatile
	line	29
	
l2269:	
;main.c: 29: TRISC=0x80;
	movlw	(080h)
	bsf	status, 5	;RP0=1, select bank1
	bcf	status, 6	;RP1=0, select bank1
	movwf	(135)^080h	;volatile
	line	30
;main.c: 30: PORTC=0x00;
	bcf	status, 5	;RP0=0, select bank0
	bcf	status, 6	;RP1=0, select bank0
	clrf	(7)	;volatile
	line	31
	
l2271:	
;main.c: 31: adc_init();
	fcall	_adc_init
	line	32
	
l2273:	
;main.c: 32: lcd_init();
	fcall	_lcd_init
	line	33
	
l2275:	
;main.c: 33: command(0x80);
	movlw	(080h)
	fcall	_command
	line	34
	
l2277:	
;main.c: 34: lcd_display("TEMP:");
	movlw	((STR_1-__stringbase))&0ffh
	fcall	_lcd_display
	line	35
	
l2279:	
;main.c: 35: command(0x87);
	movlw	(087h)
	fcall	_command
	line	36
	
l2281:	
;main.c: 36: lcd_display("Deg");
	movlw	((STR_2-__stringbase))&0ffh
	fcall	_lcd_display
	line	37
	
l2283:	
;main.c: 37: serial_init();
	fcall	_serial_init
	line	38
	
l2285:	
;main.c: 38: gsm_init();
	fcall	_gsm_init
	goto	l2287
	line	39
;main.c: 39: while(1)
	
l603:	
	line	41
	
l2287:	
;main.c: 40: {
;main.c: 41: adc_conversion();
	fcall	_adc_conversion
	line	42
	
l2289:	
;main.c: 42: command(0x85);
	movlw	(085h)
	fcall	_command
	line	43
	
l2291:	
;main.c: 43: hexa_val(c);
	bcf	status, 5	;RP0=0, select bank0
	bcf	status, 6	;RP1=0, select bank0
	movf	(_c+1),w
	clrf	(?_hexa_val+1)
	addwf	(?_hexa_val+1)
	movf	(_c),w
	clrf	(?_hexa_val)
	addwf	(?_hexa_val)

	fcall	_hexa_val
	line	44
	
l2293:	
;main.c: 44: gprs();
	fcall	_gprs
	goto	l2287
	line	45
	
l604:	
	line	39
	goto	l2287
	
l605:	
	line	46
	
l606:	
	global	start
	ljmp	start
	opt stack 0
GLOBAL	__end_of_main
	__end_of_main:
;; =============== function _main ends ============

	signat	_main,88
	global	_gprs
psect	text299,local,class=CODE,delta=2
global __ptext299
__ptext299:

;; *************** function _gprs *****************
;; Defined at:
;;		line 78 in file "C:\Users\ASHOK\Desktop\7 days Workshop\2nd Day\Session 3\PROGRAMS\11.ToT based temperature monitoring\main.c"
;; Parameters:    Size  Location     Type
;;		None
;; Auto vars:     Size  Location     Type
;;		None
;; Return value:  Size  Location     Type
;;		None               void
;; Registers used:
;;		wreg, fsr0l, fsr0h, status,2, status,0, pclath, cstack
;; Tracked objects:
;;		On entry : 0/0
;;		On exit  : 0/0
;;		Unchanged: 0/0
;; Data sizes:     COMMON   BANK0   BANK1   BANK3   BANK2
;;      Params:         0       0       0       0       0
;;      Locals:         0       0       0       0       0
;;      Temps:          3       0       0       0       0
;;      Totals:         3       0       0       0       0
;;Total ram usage:        3 bytes
;; Hardware stack levels used:    1
;; Hardware stack levels required when called:    2
;; This function calls:
;;		_serial_display
;;		_serial_out
;; This function is called by:
;;		_main
;; This function uses a non-reentrant model
;;
psect	text299
	file	"C:\Users\ASHOK\Desktop\7 days Workshop\2nd Day\Session 3\PROGRAMS\11.ToT based temperature monitoring\main.c"
	line	78
	global	__size_of_gprs
	__size_of_gprs	equ	__end_of_gprs-_gprs
	
_gprs:	
	opt	stack 5
; Regs used in _gprs: [wreg-fsr0h+status,2+status,0+pclath+cstack]
	line	79
	
l2223:	
;main.c: 79: serial_display("AT+HTTPPARA=");
	movlw	((STR_8-__stringbase))&0ffh
	fcall	_serial_display
	line	80
	
l2225:	
;main.c: 80: serial_out('"');
	movlw	(022h)
	fcall	_serial_out
	line	81
	
l2227:	
;main.c: 81: serial_display("URL");
	movlw	((STR_9-__stringbase))&0ffh
	fcall	_serial_display
	line	82
;main.c: 82: serial_out('"');
	movlw	(022h)
	fcall	_serial_out
	line	83
;main.c: 83: serial_out(',');
	movlw	(02Ch)
	fcall	_serial_out
	line	84
;main.c: 84: serial_out('"');
	movlw	(022h)
	fcall	_serial_out
	line	85
	
l2229:	
;main.c: 85: serial_display("krishtec.co.in/m2m?S=");
	movlw	((STR_10-__stringbase))&0ffh
	fcall	_serial_display
	line	86
	
l2231:	
;main.c: 86: serial_out(m+0x30);
	bcf	status, 5	;RP0=0, select bank0
	bcf	status, 6	;RP1=0, select bank0
	movf	(_m),w
	addlw	030h
	fcall	_serial_out
	line	87
	
l2233:	
;main.c: 87: serial_out(n+0x30);
	bcf	status, 5	;RP0=0, select bank0
	bcf	status, 6	;RP1=0, select bank0
	movf	(_n),w
	addlw	030h
	fcall	_serial_out
	line	88
	
l2235:	
;main.c: 88: serial_out('"');
	movlw	(022h)
	fcall	_serial_out
	line	89
	
l2237:	
;main.c: 89: serial_out(0x0d);
	movlw	(0Dh)
	fcall	_serial_out
	line	90
	
l2239:	
;main.c: 90: _delay((unsigned long)((1000)*(20e6/4000.0)));
	opt asmopt_off
movlw  26
movwf	((??_gprs+0)+0+2),f
movlw	69
movwf	((??_gprs+0)+0+1),f
	movlw	126
movwf	((??_gprs+0)+0),f
u2397:
	decfsz	((??_gprs+0)+0),f
	goto	u2397
	decfsz	((??_gprs+0)+0+1),f
	goto	u2397
	decfsz	((??_gprs+0)+0+2),f
	goto	u2397
opt asmopt_on

	line	91
	
l2241:	
;main.c: 91: serial_display("AT+HTTPPARA=");
	movlw	((STR_11-__stringbase))&0ffh
	fcall	_serial_display
	line	92
	
l2243:	
;main.c: 92: serial_out('"');
	movlw	(022h)
	fcall	_serial_out
	line	93
	
l2245:	
;main.c: 93: serial_display("CID");
	movlw	((STR_12-__stringbase))&0ffh
	fcall	_serial_display
	line	94
	
l2247:	
;main.c: 94: serial_out('"');
	movlw	(022h)
	fcall	_serial_out
	line	95
	
l2249:	
;main.c: 95: serial_out(',');
	movlw	(02Ch)
	fcall	_serial_out
	line	96
	
l2251:	
;main.c: 96: serial_out('1');
	movlw	(031h)
	fcall	_serial_out
	line	97
	
l2253:	
;main.c: 97: serial_out(0x0d);
	movlw	(0Dh)
	fcall	_serial_out
	line	98
	
l2255:	
;main.c: 98: _delay((unsigned long)((2000)*(20e6/4000.0)));
	opt asmopt_off
movlw  51
movwf	((??_gprs+0)+0+2),f
movlw	137
movwf	((??_gprs+0)+0+1),f
	movlw	256
movwf	((??_gprs+0)+0),f
u2407:
	decfsz	((??_gprs+0)+0),f
	goto	u2407
	decfsz	((??_gprs+0)+0+1),f
	goto	u2407
	decfsz	((??_gprs+0)+0+2),f
	goto	u2407
opt asmopt_on

	line	99
;main.c: 99: serial_display("AT+HTTPACTION=1");
	movlw	((STR_13-__stringbase))&0ffh
	fcall	_serial_display
	line	100
	
l2257:	
;main.c: 100: serial_out(0x0d);
	movlw	(0Dh)
	fcall	_serial_out
	line	101
	
l2259:	
;main.c: 101: _delay((unsigned long)((1000)*(20e6/4000.0)));
	opt asmopt_off
movlw  26
movwf	((??_gprs+0)+0+2),f
movlw	69
movwf	((??_gprs+0)+0+1),f
	movlw	126
movwf	((??_gprs+0)+0),f
u2417:
	decfsz	((??_gprs+0)+0),f
	goto	u2417
	decfsz	((??_gprs+0)+0+1),f
	goto	u2417
	decfsz	((??_gprs+0)+0+2),f
	goto	u2417
opt asmopt_on

	line	102
	
l615:	
	return
	opt stack 0
GLOBAL	__end_of_gprs
	__end_of_gprs:
;; =============== function _gprs ends ============

	signat	_gprs,88
	global	_hexa_val
psect	text300,local,class=CODE,delta=2
global __ptext300
__ptext300:

;; *************** function _hexa_val *****************
;; Defined at:
;;		line 132 in file "C:\Users\ASHOK\Desktop\7 days Workshop\2nd Day\Session 3\PROGRAMS\11.ToT based temperature monitoring\main.c"
;; Parameters:    Size  Location     Type
;;  val             2    8[COMMON] unsigned int 
;; Auto vars:     Size  Location     Type
;;		None
;; Return value:  Size  Location     Type
;;		None               void
;; Registers used:
;;		wreg, status,2, status,0, pclath, cstack
;; Tracked objects:
;;		On entry : 0/0
;;		On exit  : 0/0
;;		Unchanged: 0/0
;; Data sizes:     COMMON   BANK0   BANK1   BANK3   BANK2
;;      Params:         2       0       0       0       0
;;      Locals:         0       0       0       0       0
;;      Temps:          0       0       0       0       0
;;      Totals:         2       0       0       0       0
;;Total ram usage:        2 bytes
;; Hardware stack levels used:    1
;; Hardware stack levels required when called:    1
;; This function calls:
;;		___lwdiv
;;		___lwmod
;;		_lcd_data
;; This function is called by:
;;		_main
;; This function uses a non-reentrant model
;;
psect	text300
	file	"C:\Users\ASHOK\Desktop\7 days Workshop\2nd Day\Session 3\PROGRAMS\11.ToT based temperature monitoring\main.c"
	line	132
	global	__size_of_hexa_val
	__size_of_hexa_val	equ	__end_of_hexa_val-_hexa_val
	
_hexa_val:	
	opt	stack 6
; Regs used in _hexa_val: [wreg+status,2+status,0+pclath+cstack]
	line	133
	
l2221:	
;main.c: 133: d=val/1000;
	movlw	low(03E8h)
	movwf	(?___lwdiv)
	movlw	high(03E8h)
	movwf	((?___lwdiv))+1
	movf	(hexa_val@val+1),w
	clrf	1+(?___lwdiv)+02h
	addwf	1+(?___lwdiv)+02h
	movf	(hexa_val@val),w
	clrf	0+(?___lwdiv)+02h
	addwf	0+(?___lwdiv)+02h

	fcall	___lwdiv
	movf	(1+(?___lwdiv)),w
	bcf	status, 5	;RP0=0, select bank0
	bcf	status, 6	;RP1=0, select bank0
	clrf	(_d+1)
	addwf	(_d+1)
	movf	(0+(?___lwdiv)),w
	clrf	(_d)
	addwf	(_d)

	line	134
;main.c: 134: j=val%1000;
	movlw	low(03E8h)
	movwf	(?___lwmod)
	movlw	high(03E8h)
	movwf	((?___lwmod))+1
	movf	(hexa_val@val+1),w
	clrf	1+(?___lwmod)+02h
	addwf	1+(?___lwmod)+02h
	movf	(hexa_val@val),w
	clrf	0+(?___lwmod)+02h
	addwf	0+(?___lwmod)+02h

	fcall	___lwmod
	movf	(1+(?___lwmod)),w
	clrf	(_j+1)
	addwf	(_j+1)
	movf	(0+(?___lwmod)),w
	clrf	(_j)
	addwf	(_j)

	line	135
;main.c: 135: k=j/100;
	movlw	low(064h)
	movwf	(?___lwdiv)
	movlw	high(064h)
	movwf	((?___lwdiv))+1
	movf	(_j+1),w
	clrf	1+(?___lwdiv)+02h
	addwf	1+(?___lwdiv)+02h
	movf	(_j),w
	clrf	0+(?___lwdiv)+02h
	addwf	0+(?___lwdiv)+02h

	fcall	___lwdiv
	movf	(1+(?___lwdiv)),w
	bcf	status, 5	;RP0=0, select bank0
	bcf	status, 6	;RP1=0, select bank0
	clrf	(_k+1)
	addwf	(_k+1)
	movf	(0+(?___lwdiv)),w
	clrf	(_k)
	addwf	(_k)

	line	136
;main.c: 136: l=j%100;
	movlw	low(064h)
	movwf	(?___lwmod)
	movlw	high(064h)
	movwf	((?___lwmod))+1
	movf	(_j+1),w
	clrf	1+(?___lwmod)+02h
	addwf	1+(?___lwmod)+02h
	movf	(_j),w
	clrf	0+(?___lwmod)+02h
	addwf	0+(?___lwmod)+02h

	fcall	___lwmod
	movf	(1+(?___lwmod)),w
	bcf	status, 5	;RP0=0, select bank0
	bcf	status, 6	;RP1=0, select bank0
	clrf	(_l+1)
	addwf	(_l+1)
	movf	(0+(?___lwmod)),w
	clrf	(_l)
	addwf	(_l)

	line	137
;main.c: 137: m=l/10;
	movlw	low(0Ah)
	movwf	(?___lwdiv)
	movlw	high(0Ah)
	movwf	((?___lwdiv))+1
	movf	(_l+1),w
	clrf	1+(?___lwdiv)+02h
	addwf	1+(?___lwdiv)+02h
	movf	(_l),w
	clrf	0+(?___lwdiv)+02h
	addwf	0+(?___lwdiv)+02h

	fcall	___lwdiv
	movf	(1+(?___lwdiv)),w
	bcf	status, 5	;RP0=0, select bank0
	bcf	status, 6	;RP1=0, select bank0
	clrf	(_m+1)
	addwf	(_m+1)
	movf	(0+(?___lwdiv)),w
	clrf	(_m)
	addwf	(_m)

	line	138
;main.c: 138: n=l%10;
	movlw	low(0Ah)
	movwf	(?___lwmod)
	movlw	high(0Ah)
	movwf	((?___lwmod))+1
	movf	(_l+1),w
	clrf	1+(?___lwmod)+02h
	addwf	1+(?___lwmod)+02h
	movf	(_l),w
	clrf	0+(?___lwmod)+02h
	addwf	0+(?___lwmod)+02h

	fcall	___lwmod
	movf	(1+(?___lwmod)),w
	bcf	status, 5	;RP0=0, select bank0
	bcf	status, 6	;RP1=0, select bank0
	clrf	(_n+1)
	addwf	(_n+1)
	movf	(0+(?___lwmod)),w
	clrf	(_n)
	addwf	(_n)

	line	139
;main.c: 139: lcd_data(m+0x30);
	movf	(_m),w
	addlw	030h
	fcall	_lcd_data
	line	140
;main.c: 140: lcd_data(n+0x30);
	bcf	status, 5	;RP0=0, select bank0
	bcf	status, 6	;RP1=0, select bank0
	movf	(_n),w
	addlw	030h
	fcall	_lcd_data
	line	141
	
l639:	
	return
	opt stack 0
GLOBAL	__end_of_hexa_val
	__end_of_hexa_val:
;; =============== function _hexa_val ends ============

	signat	_hexa_val,4216
	global	_gsm_init
psect	text301,local,class=CODE,delta=2
global __ptext301
__ptext301:

;; *************** function _gsm_init *****************
;; Defined at:
;;		line 48 in file "C:\Users\ASHOK\Desktop\7 days Workshop\2nd Day\Session 3\PROGRAMS\11.ToT based temperature monitoring\main.c"
;; Parameters:    Size  Location     Type
;;		None
;; Auto vars:     Size  Location     Type
;;		None
;; Return value:  Size  Location     Type
;;		None               void
;; Registers used:
;;		wreg, fsr0l, fsr0h, status,2, status,0, pclath, cstack
;; Tracked objects:
;;		On entry : 0/0
;;		On exit  : 0/0
;;		Unchanged: 0/0
;; Data sizes:     COMMON   BANK0   BANK1   BANK3   BANK2
;;      Params:         0       0       0       0       0
;;      Locals:         0       0       0       0       0
;;      Temps:          3       0       0       0       0
;;      Totals:         3       0       0       0       0
;;Total ram usage:        3 bytes
;; Hardware stack levels used:    1
;; Hardware stack levels required when called:    2
;; This function calls:
;;		_serial_display
;;		_serial_out
;; This function is called by:
;;		_main
;; This function uses a non-reentrant model
;;
psect	text301
	file	"C:\Users\ASHOK\Desktop\7 days Workshop\2nd Day\Session 3\PROGRAMS\11.ToT based temperature monitoring\main.c"
	line	48
	global	__size_of_gsm_init
	__size_of_gsm_init	equ	__end_of_gsm_init-_gsm_init
	
_gsm_init:	
	opt	stack 5
; Regs used in _gsm_init: [wreg-fsr0h+status,2+status,0+pclath+cstack]
	line	49
	
l2195:	
;main.c: 49: serial_display("AT");
	movlw	((STR_3-__stringbase))&0ffh
	fcall	_serial_display
	line	50
	
l2197:	
;main.c: 50: serial_out(0x0d);
	movlw	(0Dh)
	fcall	_serial_out
	line	51
	
l2199:	
;main.c: 51: _delay((unsigned long)((500)*(20e6/4000.0)));
	opt asmopt_off
movlw  13
movwf	((??_gsm_init+0)+0+2),f
movlw	163
movwf	((??_gsm_init+0)+0+1),f
	movlw	189
movwf	((??_gsm_init+0)+0),f
u2427:
	decfsz	((??_gsm_init+0)+0),f
	goto	u2427
	decfsz	((??_gsm_init+0)+0+1),f
	goto	u2427
	decfsz	((??_gsm_init+0)+0+2),f
	goto	u2427
	clrwdt
opt asmopt_on

	line	52
	
l2201:	
;main.c: 52: serial_display("AT");
	movlw	((STR_4-__stringbase))&0ffh
	fcall	_serial_display
	line	53
	
l2203:	
;main.c: 53: serial_out(0x0d);
	movlw	(0Dh)
	fcall	_serial_out
	line	54
;main.c: 54: _delay((unsigned long)((500)*(20e6/4000.0)));
	opt asmopt_off
movlw  13
movwf	((??_gsm_init+0)+0+2),f
movlw	163
movwf	((??_gsm_init+0)+0+1),f
	movlw	189
movwf	((??_gsm_init+0)+0),f
u2437:
	decfsz	((??_gsm_init+0)+0),f
	goto	u2437
	decfsz	((??_gsm_init+0)+0+1),f
	goto	u2437
	decfsz	((??_gsm_init+0)+0+2),f
	goto	u2437
	clrwdt
opt asmopt_on

	line	55
	
l2205:	
;main.c: 55: serial_display("AT+CREG?");
	movlw	((STR_5-__stringbase))&0ffh
	fcall	_serial_display
	line	56
	
l2207:	
;main.c: 56: serial_out(0x0d);
	movlw	(0Dh)
	fcall	_serial_out
	line	57
	
l2209:	
;main.c: 57: _delay((unsigned long)((500)*(20e6/4000.0)));
	opt asmopt_off
movlw  13
movwf	((??_gsm_init+0)+0+2),f
movlw	163
movwf	((??_gsm_init+0)+0+1),f
	movlw	189
movwf	((??_gsm_init+0)+0),f
u2447:
	decfsz	((??_gsm_init+0)+0),f
	goto	u2447
	decfsz	((??_gsm_init+0)+0+1),f
	goto	u2447
	decfsz	((??_gsm_init+0)+0+2),f
	goto	u2447
	clrwdt
opt asmopt_on

	line	58
	
l2211:	
;main.c: 58: serial_display("AT+SAPBR=1,1");
	movlw	((STR_6-__stringbase))&0ffh
	fcall	_serial_display
	line	59
;main.c: 59: serial_out(0x0d);
	movlw	(0Dh)
	fcall	_serial_out
	line	60
	
l2213:	
;main.c: 60: _delay((unsigned long)((1000)*(20e6/4000.0)));
	opt asmopt_off
movlw  26
movwf	((??_gsm_init+0)+0+2),f
movlw	69
movwf	((??_gsm_init+0)+0+1),f
	movlw	126
movwf	((??_gsm_init+0)+0),f
u2457:
	decfsz	((??_gsm_init+0)+0),f
	goto	u2457
	decfsz	((??_gsm_init+0)+0+1),f
	goto	u2457
	decfsz	((??_gsm_init+0)+0+2),f
	goto	u2457
opt asmopt_on

	line	61
	
l2215:	
;main.c: 61: serial_display("AT+HTTPINIT");
	movlw	((STR_7-__stringbase))&0ffh
	fcall	_serial_display
	line	62
	
l2217:	
;main.c: 62: serial_out(0x0d);
	movlw	(0Dh)
	fcall	_serial_out
	line	63
	
l2219:	
;main.c: 63: _delay((unsigned long)((1000)*(20e6/4000.0)));
	opt asmopt_off
movlw  26
movwf	((??_gsm_init+0)+0+2),f
movlw	69
movwf	((??_gsm_init+0)+0+1),f
	movlw	126
movwf	((??_gsm_init+0)+0),f
u2467:
	decfsz	((??_gsm_init+0)+0),f
	goto	u2467
	decfsz	((??_gsm_init+0)+0+1),f
	goto	u2467
	decfsz	((??_gsm_init+0)+0+2),f
	goto	u2467
opt asmopt_on

	line	64
	
l609:	
	return
	opt stack 0
GLOBAL	__end_of_gsm_init
	__end_of_gsm_init:
;; =============== function _gsm_init ends ============

	signat	_gsm_init,88
	global	_lcd_display
psect	text302,local,class=CODE,delta=2
global __ptext302
__ptext302:

;; *************** function _lcd_display *****************
;; Defined at:
;;		line 168 in file "C:\Users\ASHOK\Desktop\7 days Workshop\2nd Day\Session 3\PROGRAMS\11.ToT based temperature monitoring\main.c"
;; Parameters:    Size  Location     Type
;;  word            1    wreg     PTR const unsigned char 
;;		 -> STR_2(4), STR_1(6), 
;; Auto vars:     Size  Location     Type
;;  word            1    5[COMMON] PTR const unsigned char 
;;		 -> STR_2(4), STR_1(6), 
;; Return value:  Size  Location     Type
;;		None               void
;; Registers used:
;;		wreg, fsr0l, fsr0h, status,2, status,0, pclath, cstack
;; Tracked objects:
;;		On entry : 0/0
;;		On exit  : 0/0
;;		Unchanged: 0/0
;; Data sizes:     COMMON   BANK0   BANK1   BANK3   BANK2
;;      Params:         0       0       0       0       0
;;      Locals:         1       0       0       0       0
;;      Temps:          2       0       0       0       0
;;      Totals:         3       0       0       0       0
;;Total ram usage:        3 bytes
;; Hardware stack levels used:    1
;; Hardware stack levels required when called:    1
;; This function calls:
;;		_lcd_data
;; This function is called by:
;;		_main
;; This function uses a non-reentrant model
;;
psect	text302
	file	"C:\Users\ASHOK\Desktop\7 days Workshop\2nd Day\Session 3\PROGRAMS\11.ToT based temperature monitoring\main.c"
	line	168
	global	__size_of_lcd_display
	__size_of_lcd_display	equ	__end_of_lcd_display-_lcd_display
	
_lcd_display:	
	opt	stack 6
; Regs used in _lcd_display: [wreg-fsr0h+status,2+status,0+pclath+cstack]
;lcd_display@word stored from wreg
	movwf	(lcd_display@word)
	line	169
	
l2185:	
;main.c: 169: while(*word)
	goto	l2193
	
l652:	
	line	171
	
l2187:	
;main.c: 170: {
;main.c: 171: lcd_data(*word++);
	movf	(lcd_display@word),w
	movwf	fsr0
	fcall	stringdir
	fcall	_lcd_data
	
l2189:	
	movlw	(01h)
	movwf	(??_lcd_display+0)+0
	movf	(??_lcd_display+0)+0,w
	addwf	(lcd_display@word),f
	line	172
	
l2191:	
;main.c: 172: _delay((unsigned long)((1)*(20e6/4000.0)));
	opt asmopt_off
movlw	7
movwf	((??_lcd_display+0)+0+1),f
	movlw	125
movwf	((??_lcd_display+0)+0),f
u2477:
	decfsz	((??_lcd_display+0)+0),f
	goto	u2477
	decfsz	((??_lcd_display+0)+0+1),f
	goto	u2477
opt asmopt_on

	goto	l2193
	line	173
	
l651:	
	line	169
	
l2193:	
	movf	(lcd_display@word),w
	movwf	fsr0
	fcall	stringdir
	iorlw	0
	skipz
	goto	u2381
	goto	u2380
u2381:
	goto	l2187
u2380:
	goto	l654
	
l653:	
	line	174
	
l654:	
	return
	opt stack 0
GLOBAL	__end_of_lcd_display
	__end_of_lcd_display:
;; =============== function _lcd_display ends ============

	signat	_lcd_display,4216
	global	_lcd_init
psect	text303,local,class=CODE,delta=2
global __ptext303
__ptext303:

;; *************** function _lcd_init *****************
;; Defined at:
;;		line 143 in file "C:\Users\ASHOK\Desktop\7 days Workshop\2nd Day\Session 3\PROGRAMS\11.ToT based temperature monitoring\main.c"
;; Parameters:    Size  Location     Type
;;		None
;; Auto vars:     Size  Location     Type
;;		None
;; Return value:  Size  Location     Type
;;		None               void
;; Registers used:
;;		wreg, status,2, status,0, pclath, cstack
;; Tracked objects:
;;		On entry : 0/0
;;		On exit  : 0/0
;;		Unchanged: 0/0
;; Data sizes:     COMMON   BANK0   BANK1   BANK3   BANK2
;;      Params:         0       0       0       0       0
;;      Locals:         0       0       0       0       0
;;      Temps:          0       0       0       0       0
;;      Totals:         0       0       0       0       0
;;Total ram usage:        0 bytes
;; Hardware stack levels used:    1
;; Hardware stack levels required when called:    1
;; This function calls:
;;		_command
;; This function is called by:
;;		_main
;; This function uses a non-reentrant model
;;
psect	text303
	file	"C:\Users\ASHOK\Desktop\7 days Workshop\2nd Day\Session 3\PROGRAMS\11.ToT based temperature monitoring\main.c"
	line	143
	global	__size_of_lcd_init
	__size_of_lcd_init	equ	__end_of_lcd_init-_lcd_init
	
_lcd_init:	
	opt	stack 6
; Regs used in _lcd_init: [wreg+status,2+status,0+pclath+cstack]
	line	144
	
l2183:	
;main.c: 144: command(0x01);
	movlw	(01h)
	fcall	_command
	line	145
;main.c: 145: command(0x06);
	movlw	(06h)
	fcall	_command
	line	146
;main.c: 146: command(0x0c);
	movlw	(0Ch)
	fcall	_command
	line	147
;main.c: 147: command(0x38);
	movlw	(038h)
	fcall	_command
	line	148
	
l642:	
	return
	opt stack 0
GLOBAL	__end_of_lcd_init
	__end_of_lcd_init:
;; =============== function _lcd_init ends ============

	signat	_lcd_init,88
	global	_lcd_data
psect	text304,local,class=CODE,delta=2
global __ptext304
__ptext304:

;; *************** function _lcd_data *****************
;; Defined at:
;;		line 159 in file "C:\Users\ASHOK\Desktop\7 days Workshop\2nd Day\Session 3\PROGRAMS\11.ToT based temperature monitoring\main.c"
;; Parameters:    Size  Location     Type
;;  D               1    wreg     unsigned char 
;; Auto vars:     Size  Location     Type
;;  D               1    2[COMMON] unsigned char 
;; Return value:  Size  Location     Type
;;		None               void
;; Registers used:
;;		wreg
;; Tracked objects:
;;		On entry : 0/0
;;		On exit  : 0/0
;;		Unchanged: 0/0
;; Data sizes:     COMMON   BANK0   BANK1   BANK3   BANK2
;;      Params:         0       0       0       0       0
;;      Locals:         1       0       0       0       0
;;      Temps:          2       0       0       0       0
;;      Totals:         3       0       0       0       0
;;Total ram usage:        3 bytes
;; Hardware stack levels used:    1
;; This function calls:
;;		Nothing
;; This function is called by:
;;		_hexa_val
;;		_lcd_display
;; This function uses a non-reentrant model
;;
psect	text304
	file	"C:\Users\ASHOK\Desktop\7 days Workshop\2nd Day\Session 3\PROGRAMS\11.ToT based temperature monitoring\main.c"
	line	159
	global	__size_of_lcd_data
	__size_of_lcd_data	equ	__end_of_lcd_data-_lcd_data
	
_lcd_data:	
	opt	stack 6
; Regs used in _lcd_data: [wreg]
;lcd_data@D stored from wreg
	movwf	(lcd_data@D)
	line	160
	
l2175:	
;main.c: 160: PORTD=D;
	movf	(lcd_data@D),w
	bcf	status, 5	;RP0=0, select bank0
	bcf	status, 6	;RP1=0, select bank0
	movwf	(8)	;volatile
	line	161
	
l2177:	
;main.c: 161: RA2=1;
	bsf	(42/8),(42)&7
	line	162
	
l2179:	
;main.c: 162: RA3=1;
	bsf	(43/8),(43)&7
	line	163
;main.c: 163: _delay((unsigned long)((10)*(20e6/4000.0)));
	opt asmopt_off
movlw	65
movwf	((??_lcd_data+0)+0+1),f
	movlw	238
movwf	((??_lcd_data+0)+0),f
u2487:
	decfsz	((??_lcd_data+0)+0),f
	goto	u2487
	decfsz	((??_lcd_data+0)+0+1),f
	goto	u2487
	clrwdt
opt asmopt_on

	line	164
	
l2181:	
;main.c: 164: RA3=0;
	bcf	status, 5	;RP0=0, select bank0
	bcf	status, 6	;RP1=0, select bank0
	bcf	(43/8),(43)&7
	line	165
;main.c: 165: _delay((unsigned long)((10)*(20e6/4000.0)));
	opt asmopt_off
movlw	65
movwf	((??_lcd_data+0)+0+1),f
	movlw	238
movwf	((??_lcd_data+0)+0),f
u2497:
	decfsz	((??_lcd_data+0)+0),f
	goto	u2497
	decfsz	((??_lcd_data+0)+0+1),f
	goto	u2497
	clrwdt
opt asmopt_on

	line	166
	
l648:	
	return
	opt stack 0
GLOBAL	__end_of_lcd_data
	__end_of_lcd_data:
;; =============== function _lcd_data ends ============

	signat	_lcd_data,4216
	global	_serial_display
psect	text305,local,class=CODE,delta=2
global __ptext305
__ptext305:

;; *************** function _serial_display *****************
;; Defined at:
;;		line 111 in file "C:\Users\ASHOK\Desktop\7 days Workshop\2nd Day\Session 3\PROGRAMS\11.ToT based temperature monitoring\main.c"
;; Parameters:    Size  Location     Type
;;  w               1    wreg     PTR const unsigned char 
;;		 -> STR_13(16), STR_12(4), STR_11(13), STR_10(22), 
;;		 -> STR_9(4), STR_8(13), STR_7(12), STR_6(13), 
;;		 -> STR_5(9), STR_4(3), STR_3(3), 
;; Auto vars:     Size  Location     Type
;;  w               1    2[COMMON] PTR const unsigned char 
;;		 -> STR_13(16), STR_12(4), STR_11(13), STR_10(22), 
;;		 -> STR_9(4), STR_8(13), STR_7(12), STR_6(13), 
;;		 -> STR_5(9), STR_4(3), STR_3(3), 
;; Return value:  Size  Location     Type
;;		None               void
;; Registers used:
;;		wreg, fsr0l, fsr0h, status,2, status,0, pclath, cstack
;; Tracked objects:
;;		On entry : 0/0
;;		On exit  : 0/0
;;		Unchanged: 0/0
;; Data sizes:     COMMON   BANK0   BANK1   BANK3   BANK2
;;      Params:         0       0       0       0       0
;;      Locals:         1       0       0       0       0
;;      Temps:          1       0       0       0       0
;;      Totals:         2       0       0       0       0
;;Total ram usage:        2 bytes
;; Hardware stack levels used:    1
;; Hardware stack levels required when called:    1
;; This function calls:
;;		_serial_out
;; This function is called by:
;;		_gsm_init
;;		_gprs
;; This function uses a non-reentrant model
;;
psect	text305
	file	"C:\Users\ASHOK\Desktop\7 days Workshop\2nd Day\Session 3\PROGRAMS\11.ToT based temperature monitoring\main.c"
	line	111
	global	__size_of_serial_display
	__size_of_serial_display	equ	__end_of_serial_display-_serial_display
	
_serial_display:	
	opt	stack 5
; Regs used in _serial_display: [wreg-fsr0h+status,2+status,0+pclath+cstack]
;serial_display@w stored from wreg
	movwf	(serial_display@w)
	line	112
	
l2167:	
;main.c: 112: while(*w)
	goto	l2173
	
l625:	
	line	114
	
l2169:	
;main.c: 113: {
;main.c: 114: serial_out(*w++);
	movf	(serial_display@w),w
	movwf	fsr0
	fcall	stringdir
	fcall	_serial_out
	
l2171:	
	movlw	(01h)
	movwf	(??_serial_display+0)+0
	movf	(??_serial_display+0)+0,w
	addwf	(serial_display@w),f
	goto	l2173
	line	115
	
l624:	
	line	112
	
l2173:	
	movf	(serial_display@w),w
	movwf	fsr0
	fcall	stringdir
	iorlw	0
	skipz
	goto	u2371
	goto	u2370
u2371:
	goto	l2169
u2370:
	goto	l627
	
l626:	
	line	116
	
l627:	
	return
	opt stack 0
GLOBAL	__end_of_serial_display
	__end_of_serial_display:
;; =============== function _serial_display ends ============

	signat	_serial_display,4216
	global	_command
psect	text306,local,class=CODE,delta=2
global __ptext306
__ptext306:

;; *************** function _command *****************
;; Defined at:
;;		line 150 in file "C:\Users\ASHOK\Desktop\7 days Workshop\2nd Day\Session 3\PROGRAMS\11.ToT based temperature monitoring\main.c"
;; Parameters:    Size  Location     Type
;;  com             1    wreg     unsigned char 
;; Auto vars:     Size  Location     Type
;;  com             1    2[COMMON] unsigned char 
;; Return value:  Size  Location     Type
;;		None               void
;; Registers used:
;;		wreg
;; Tracked objects:
;;		On entry : 0/0
;;		On exit  : 0/0
;;		Unchanged: 0/0
;; Data sizes:     COMMON   BANK0   BANK1   BANK3   BANK2
;;      Params:         0       0       0       0       0
;;      Locals:         1       0       0       0       0
;;      Temps:          2       0       0       0       0
;;      Totals:         3       0       0       0       0
;;Total ram usage:        3 bytes
;; Hardware stack levels used:    1
;; This function calls:
;;		Nothing
;; This function is called by:
;;		_main
;;		_lcd_init
;; This function uses a non-reentrant model
;;
psect	text306
	file	"C:\Users\ASHOK\Desktop\7 days Workshop\2nd Day\Session 3\PROGRAMS\11.ToT based temperature monitoring\main.c"
	line	150
	global	__size_of_command
	__size_of_command	equ	__end_of_command-_command
	
_command:	
	opt	stack 7
; Regs used in _command: [wreg]
;command@com stored from wreg
	movwf	(command@com)
	line	151
	
l2159:	
;main.c: 151: PORTD=com;
	movf	(command@com),w
	bcf	status, 5	;RP0=0, select bank0
	bcf	status, 6	;RP1=0, select bank0
	movwf	(8)	;volatile
	line	152
	
l2161:	
;main.c: 152: RA2=0;
	bcf	(42/8),(42)&7
	line	153
	
l2163:	
;main.c: 153: RA3=1;
	bsf	(43/8),(43)&7
	line	154
;main.c: 154: _delay((unsigned long)((10)*(20e6/4000.0)));
	opt asmopt_off
movlw	65
movwf	((??_command+0)+0+1),f
	movlw	238
movwf	((??_command+0)+0),f
u2507:
	decfsz	((??_command+0)+0),f
	goto	u2507
	decfsz	((??_command+0)+0+1),f
	goto	u2507
	clrwdt
opt asmopt_on

	line	155
	
l2165:	
;main.c: 155: RA3=0;
	bcf	status, 5	;RP0=0, select bank0
	bcf	status, 6	;RP1=0, select bank0
	bcf	(43/8),(43)&7
	line	156
;main.c: 156: _delay((unsigned long)((10)*(20e6/4000.0)));
	opt asmopt_off
movlw	65
movwf	((??_command+0)+0+1),f
	movlw	238
movwf	((??_command+0)+0),f
u2517:
	decfsz	((??_command+0)+0),f
	goto	u2517
	decfsz	((??_command+0)+0+1),f
	goto	u2517
	clrwdt
opt asmopt_on

	line	157
	
l645:	
	return
	opt stack 0
GLOBAL	__end_of_command
	__end_of_command:
;; =============== function _command ends ============

	signat	_command,4216
	global	___lwmod
psect	text307,local,class=CODE,delta=2
global __ptext307
__ptext307:

;; *************** function ___lwmod *****************
;; Defined at:
;;		line 5 in file "C:\Program Files\HI-TECH Software\PICC\9.80\sources\lwmod.c"
;; Parameters:    Size  Location     Type
;;  divisor         2    0[COMMON] unsigned int 
;;  dividend        2    2[COMMON] unsigned int 
;; Auto vars:     Size  Location     Type
;;  counter         1    5[COMMON] unsigned char 
;; Return value:  Size  Location     Type
;;                  2    0[COMMON] unsigned int 
;; Registers used:
;;		wreg, status,2, status,0
;; Tracked objects:
;;		On entry : 0/0
;;		On exit  : 0/0
;;		Unchanged: 0/0
;; Data sizes:     COMMON   BANK0   BANK1   BANK3   BANK2
;;      Params:         4       0       0       0       0
;;      Locals:         1       0       0       0       0
;;      Temps:          1       0       0       0       0
;;      Totals:         6       0       0       0       0
;;Total ram usage:        6 bytes
;; Hardware stack levels used:    1
;; This function calls:
;;		Nothing
;; This function is called by:
;;		_hexa_val
;; This function uses a non-reentrant model
;;
psect	text307
	file	"C:\Program Files\HI-TECH Software\PICC\9.80\sources\lwmod.c"
	line	5
	global	__size_of___lwmod
	__size_of___lwmod	equ	__end_of___lwmod-___lwmod
	
___lwmod:	
	opt	stack 6
; Regs used in ___lwmod: [wreg+status,2+status,0]
	line	8
	
l2137:	
	movf	(___lwmod@divisor+1),w
	iorwf	(___lwmod@divisor),w
	skipnz
	goto	u2311
	goto	u2310
u2311:
	goto	l2155
u2310:
	line	9
	
l2139:	
	clrf	(___lwmod@counter)
	bsf	status,0
	rlf	(___lwmod@counter),f
	line	10
	goto	l2145
	
l681:	
	line	11
	
l2141:	
	movlw	01h
	
u2325:
	clrc
	rlf	(___lwmod@divisor),f
	rlf	(___lwmod@divisor+1),f
	addlw	-1
	skipz
	goto	u2325
	line	12
	
l2143:	
	movlw	(01h)
	movwf	(??___lwmod+0)+0
	movf	(??___lwmod+0)+0,w
	addwf	(___lwmod@counter),f
	goto	l2145
	line	13
	
l680:	
	line	10
	
l2145:	
	btfss	(___lwmod@divisor+1),(15)&7
	goto	u2331
	goto	u2330
u2331:
	goto	l2141
u2330:
	goto	l2147
	
l682:	
	goto	l2147
	line	14
	
l683:	
	line	15
	
l2147:	
	movf	(___lwmod@divisor+1),w
	subwf	(___lwmod@dividend+1),w
	skipz
	goto	u2345
	movf	(___lwmod@divisor),w
	subwf	(___lwmod@dividend),w
u2345:
	skipc
	goto	u2341
	goto	u2340
u2341:
	goto	l2151
u2340:
	line	16
	
l2149:	
	movf	(___lwmod@divisor),w
	subwf	(___lwmod@dividend),f
	movf	(___lwmod@divisor+1),w
	skipc
	decf	(___lwmod@dividend+1),f
	subwf	(___lwmod@dividend+1),f
	goto	l2151
	
l684:	
	line	17
	
l2151:	
	movlw	01h
	
u2355:
	clrc
	rrf	(___lwmod@divisor+1),f
	rrf	(___lwmod@divisor),f
	addlw	-1
	skipz
	goto	u2355
	line	18
	
l2153:	
	movlw	low(01h)
	subwf	(___lwmod@counter),f
	btfss	status,2
	goto	u2361
	goto	u2360
u2361:
	goto	l2147
u2360:
	goto	l2155
	
l685:	
	goto	l2155
	line	19
	
l679:	
	line	20
	
l2155:	
	movf	(___lwmod@dividend+1),w
	clrf	(?___lwmod+1)
	addwf	(?___lwmod+1)
	movf	(___lwmod@dividend),w
	clrf	(?___lwmod)
	addwf	(?___lwmod)

	goto	l686
	
l2157:	
	line	21
	
l686:	
	return
	opt stack 0
GLOBAL	__end_of___lwmod
	__end_of___lwmod:
;; =============== function ___lwmod ends ============

	signat	___lwmod,8314
	global	___lwdiv
psect	text308,local,class=CODE,delta=2
global __ptext308
__ptext308:

;; *************** function ___lwdiv *****************
;; Defined at:
;;		line 5 in file "C:\Program Files\HI-TECH Software\PICC\9.80\sources\lwdiv.c"
;; Parameters:    Size  Location     Type
;;  divisor         2    0[COMMON] unsigned int 
;;  dividend        2    2[COMMON] unsigned int 
;; Auto vars:     Size  Location     Type
;;  quotient        2    5[COMMON] unsigned int 
;;  counter         1    7[COMMON] unsigned char 
;; Return value:  Size  Location     Type
;;                  2    0[COMMON] unsigned int 
;; Registers used:
;;		wreg, status,2, status,0
;; Tracked objects:
;;		On entry : 0/0
;;		On exit  : 0/0
;;		Unchanged: 0/0
;; Data sizes:     COMMON   BANK0   BANK1   BANK3   BANK2
;;      Params:         4       0       0       0       0
;;      Locals:         3       0       0       0       0
;;      Temps:          1       0       0       0       0
;;      Totals:         8       0       0       0       0
;;Total ram usage:        8 bytes
;; Hardware stack levels used:    1
;; This function calls:
;;		Nothing
;; This function is called by:
;;		_hexa_val
;; This function uses a non-reentrant model
;;
psect	text308
	file	"C:\Program Files\HI-TECH Software\PICC\9.80\sources\lwdiv.c"
	line	5
	global	__size_of___lwdiv
	__size_of___lwdiv	equ	__end_of___lwdiv-___lwdiv
	
___lwdiv:	
	opt	stack 6
; Regs used in ___lwdiv: [wreg+status,2+status,0]
	line	9
	
l2113:	
	movlw	low(0)
	movwf	(___lwdiv@quotient)
	movlw	high(0)
	movwf	((___lwdiv@quotient))+1
	line	10
	movf	(___lwdiv@divisor+1),w
	iorwf	(___lwdiv@divisor),w
	skipnz
	goto	u2241
	goto	u2240
u2241:
	goto	l2133
u2240:
	line	11
	
l2115:	
	clrf	(___lwdiv@counter)
	bsf	status,0
	rlf	(___lwdiv@counter),f
	line	12
	goto	l2121
	
l671:	
	line	13
	
l2117:	
	movlw	01h
	
u2255:
	clrc
	rlf	(___lwdiv@divisor),f
	rlf	(___lwdiv@divisor+1),f
	addlw	-1
	skipz
	goto	u2255
	line	14
	
l2119:	
	movlw	(01h)
	movwf	(??___lwdiv+0)+0
	movf	(??___lwdiv+0)+0,w
	addwf	(___lwdiv@counter),f
	goto	l2121
	line	15
	
l670:	
	line	12
	
l2121:	
	btfss	(___lwdiv@divisor+1),(15)&7
	goto	u2261
	goto	u2260
u2261:
	goto	l2117
u2260:
	goto	l2123
	
l672:	
	goto	l2123
	line	16
	
l673:	
	line	17
	
l2123:	
	movlw	01h
	
u2275:
	clrc
	rlf	(___lwdiv@quotient),f
	rlf	(___lwdiv@quotient+1),f
	addlw	-1
	skipz
	goto	u2275
	line	18
	movf	(___lwdiv@divisor+1),w
	subwf	(___lwdiv@dividend+1),w
	skipz
	goto	u2285
	movf	(___lwdiv@divisor),w
	subwf	(___lwdiv@dividend),w
u2285:
	skipc
	goto	u2281
	goto	u2280
u2281:
	goto	l2129
u2280:
	line	19
	
l2125:	
	movf	(___lwdiv@divisor),w
	subwf	(___lwdiv@dividend),f
	movf	(___lwdiv@divisor+1),w
	skipc
	decf	(___lwdiv@dividend+1),f
	subwf	(___lwdiv@dividend+1),f
	line	20
	
l2127:	
	bsf	(___lwdiv@quotient)+(0/8),(0)&7
	goto	l2129
	line	21
	
l674:	
	line	22
	
l2129:	
	movlw	01h
	
u2295:
	clrc
	rrf	(___lwdiv@divisor+1),f
	rrf	(___lwdiv@divisor),f
	addlw	-1
	skipz
	goto	u2295
	line	23
	
l2131:	
	movlw	low(01h)
	subwf	(___lwdiv@counter),f
	btfss	status,2
	goto	u2301
	goto	u2300
u2301:
	goto	l2123
u2300:
	goto	l2133
	
l675:	
	goto	l2133
	line	24
	
l669:	
	line	25
	
l2133:	
	movf	(___lwdiv@quotient+1),w
	clrf	(?___lwdiv+1)
	addwf	(?___lwdiv+1)
	movf	(___lwdiv@quotient),w
	clrf	(?___lwdiv)
	addwf	(?___lwdiv)

	goto	l676
	
l2135:	
	line	26
	
l676:	
	return
	opt stack 0
GLOBAL	__end_of___lwdiv
	__end_of___lwdiv:
;; =============== function ___lwdiv ends ============

	signat	___lwdiv,8314
	global	_serial_out
psect	text309,local,class=CODE,delta=2
global __ptext309
__ptext309:

;; *************** function _serial_out *****************
;; Defined at:
;;		line 105 in file "C:\Users\ASHOK\Desktop\7 days Workshop\2nd Day\Session 3\PROGRAMS\11.ToT based temperature monitoring\main.c"
;; Parameters:    Size  Location     Type
;;  z               1    wreg     unsigned char 
;; Auto vars:     Size  Location     Type
;;  z               1    0[COMMON] unsigned char 
;; Return value:  Size  Location     Type
;;		None               void
;; Registers used:
;;		wreg
;; Tracked objects:
;;		On entry : 0/0
;;		On exit  : 0/0
;;		Unchanged: 0/0
;; Data sizes:     COMMON   BANK0   BANK1   BANK3   BANK2
;;      Params:         0       0       0       0       0
;;      Locals:         1       0       0       0       0
;;      Temps:          0       0       0       0       0
;;      Totals:         1       0       0       0       0
;;Total ram usage:        1 bytes
;; Hardware stack levels used:    1
;; This function calls:
;;		Nothing
;; This function is called by:
;;		_gsm_init
;;		_gprs
;;		_serial_display
;; This function uses a non-reentrant model
;;
psect	text309
	file	"C:\Users\ASHOK\Desktop\7 days Workshop\2nd Day\Session 3\PROGRAMS\11.ToT based temperature monitoring\main.c"
	line	105
	global	__size_of_serial_out
	__size_of_serial_out	equ	__end_of_serial_out-_serial_out
	
_serial_out:	
	opt	stack 6
; Regs used in _serial_out: [wreg]
;serial_out@z stored from wreg
	movwf	(serial_out@z)
	line	106
	
l2111:	
;main.c: 106: TXREG=z;
	movf	(serial_out@z),w
	bcf	status, 5	;RP0=0, select bank0
	bcf	status, 6	;RP1=0, select bank0
	movwf	(25)	;volatile
	line	107
;main.c: 107: while(!TXIF);
	goto	l618
	
l619:	
	
l618:	
	btfss	(100/8),(100)&7
	goto	u2231
	goto	u2230
u2231:
	goto	l618
u2230:
	
l620:	
	line	108
;main.c: 108: TXIF=0;
	bcf	(100/8),(100)&7
	line	109
	
l621:	
	return
	opt stack 0
GLOBAL	__end_of_serial_out
	__end_of_serial_out:
;; =============== function _serial_out ends ============

	signat	_serial_out,4216
	global	_adc_conversion
psect	text310,local,class=CODE,delta=2
global __ptext310
__ptext310:

;; *************** function _adc_conversion *****************
;; Defined at:
;;		line 123 in file "C:\Users\ASHOK\Desktop\7 days Workshop\2nd Day\Session 3\PROGRAMS\11.ToT based temperature monitoring\main.c"
;; Parameters:    Size  Location     Type
;;		None
;; Auto vars:     Size  Location     Type
;;		None
;; Return value:  Size  Location     Type
;;		None               void
;; Registers used:
;;		wreg, status,2, status,0, btemp+1
;; Tracked objects:
;;		On entry : 0/0
;;		On exit  : 0/0
;;		Unchanged: 0/0
;; Data sizes:     COMMON   BANK0   BANK1   BANK3   BANK2
;;      Params:         0       0       0       0       0
;;      Locals:         0       0       0       0       0
;;      Temps:          2       0       0       0       0
;;      Totals:         2       0       0       0       0
;;Total ram usage:        2 bytes
;; Hardware stack levels used:    1
;; This function calls:
;;		Nothing
;; This function is called by:
;;		_main
;; This function uses a non-reentrant model
;;
psect	text310
	file	"C:\Users\ASHOK\Desktop\7 days Workshop\2nd Day\Session 3\PROGRAMS\11.ToT based temperature monitoring\main.c"
	line	123
	global	__size_of_adc_conversion
	__size_of_adc_conversion	equ	__end_of_adc_conversion-_adc_conversion
	
_adc_conversion:	
	opt	stack 7
; Regs used in _adc_conversion: [wreg+status,2+status,0+btemp+1]
	line	124
	
l2103:	
;main.c: 124: ADCON0=0XC5;
	movlw	(0C5h)
	bcf	status, 5	;RP0=0, select bank0
	bcf	status, 6	;RP1=0, select bank0
	movwf	(31)	;volatile
	line	125
;main.c: 125: while(ADGO);
	goto	l633
	
l634:	
	
l633:	
	btfsc	(250/8),(250)&7
	goto	u2201
	goto	u2200
u2201:
	goto	l633
u2200:
	goto	l2105
	
l635:	
	line	126
	
l2105:	
;main.c: 126: a=ADRESL;
	bsf	status, 5	;RP0=1, select bank1
	bcf	status, 6	;RP1=0, select bank1
	movf	(158)^080h,w	;volatile
	movwf	(??_adc_conversion+0)+0
	clrf	(??_adc_conversion+0)+0+1
	movf	0+(??_adc_conversion+0)+0,w
	bcf	status, 5	;RP0=0, select bank0
	bcf	status, 6	;RP1=0, select bank0
	movwf	(_a)
	movf	1+(??_adc_conversion+0)+0,w
	movwf	(_a+1)
	line	127
;main.c: 127: b=ADRESH;
	movf	(30),w	;volatile
	movwf	(??_adc_conversion+0)+0
	clrf	(??_adc_conversion+0)+0+1
	movf	0+(??_adc_conversion+0)+0,w
	movwf	(_b)
	movf	1+(??_adc_conversion+0)+0,w
	movwf	(_b+1)
	line	128
	
l2107:	
;main.c: 128: b=b*256;
	movf	(_b+1),w
	movwf	(??_adc_conversion+0)+0+1
	movf	(_b),w
	movwf	(??_adc_conversion+0)+0
	movlw	08h
	movwf	btemp+1
u2215:
	clrc
	rlf	(??_adc_conversion+0)+0,f
	rlf	(??_adc_conversion+0)+1,f
	decfsz	btemp+1,f
	goto	u2215
	movf	0+(??_adc_conversion+0)+0,w
	movwf	(_b)
	movf	1+(??_adc_conversion+0)+0,w
	movwf	(_b+1)
	line	129
	
l2109:	
;main.c: 129: c=b+a/2;
	movf	(_a+1),w
	movwf	(??_adc_conversion+0)+0+1
	movf	(_a),w
	movwf	(??_adc_conversion+0)+0
	movlw	01h
u2225:
	clrc
	rrf	(??_adc_conversion+0)+1,f
	rrf	(??_adc_conversion+0)+0,f
	addlw	-1
	skipz
	goto	u2225
	movf	(_b),w
	addwf	0+(??_adc_conversion+0)+0,w
	movwf	(_c)
	movf	(_b+1),w
	skipnc
	incf	(_b+1),w
	addwf	1+(??_adc_conversion+0)+0,w
	movwf	1+(_c)
	line	130
	
l636:	
	return
	opt stack 0
GLOBAL	__end_of_adc_conversion
	__end_of_adc_conversion:
;; =============== function _adc_conversion ends ============

	signat	_adc_conversion,88
	global	_serial_init
psect	text311,local,class=CODE,delta=2
global __ptext311
__ptext311:

;; *************** function _serial_init *****************
;; Defined at:
;;		line 66 in file "C:\Users\ASHOK\Desktop\7 days Workshop\2nd Day\Session 3\PROGRAMS\11.ToT based temperature monitoring\main.c"
;; Parameters:    Size  Location     Type
;;		None
;; Auto vars:     Size  Location     Type
;;		None
;; Return value:  Size  Location     Type
;;		None               void
;; Registers used:
;;		wreg
;; Tracked objects:
;;		On entry : 0/0
;;		On exit  : 0/0
;;		Unchanged: 0/0
;; Data sizes:     COMMON   BANK0   BANK1   BANK3   BANK2
;;      Params:         0       0       0       0       0
;;      Locals:         0       0       0       0       0
;;      Temps:          0       0       0       0       0
;;      Totals:         0       0       0       0       0
;;Total ram usage:        0 bytes
;; Hardware stack levels used:    1
;; This function calls:
;;		Nothing
;; This function is called by:
;;		_main
;; This function uses a non-reentrant model
;;
psect	text311
	file	"C:\Users\ASHOK\Desktop\7 days Workshop\2nd Day\Session 3\PROGRAMS\11.ToT based temperature monitoring\main.c"
	line	66
	global	__size_of_serial_init
	__size_of_serial_init	equ	__end_of_serial_init-_serial_init
	
_serial_init:	
	opt	stack 7
; Regs used in _serial_init: [wreg]
	line	67
	
l2085:	
;main.c: 67: SPBRG=129;
	movlw	(081h)
	bsf	status, 5	;RP0=1, select bank1
	bcf	status, 6	;RP1=0, select bank1
	movwf	(153)^080h	;volatile
	line	68
	
l2087:	
;main.c: 68: BRGH=1;
	bsf	(1218/8)^080h,(1218)&7
	line	69
	
l2089:	
;main.c: 69: SYNC=0;
	bcf	(1220/8)^080h,(1220)&7
	line	70
	
l2091:	
;main.c: 70: SPEN=1;
	bcf	status, 5	;RP0=0, select bank0
	bcf	status, 6	;RP1=0, select bank0
	bsf	(199/8),(199)&7
	line	71
	
l2093:	
;main.c: 71: RCIE=1;
	bsf	status, 5	;RP0=1, select bank1
	bcf	status, 6	;RP1=0, select bank1
	bsf	(1125/8)^080h,(1125)&7
	line	72
	
l2095:	
;main.c: 72: CREN=1;
	bcf	status, 5	;RP0=0, select bank0
	bcf	status, 6	;RP1=0, select bank0
	bsf	(196/8),(196)&7
	line	73
	
l2097:	
;main.c: 73: TXEN=1;
	bsf	status, 5	;RP0=1, select bank1
	bcf	status, 6	;RP1=0, select bank1
	bsf	(1221/8)^080h,(1221)&7
	line	74
	
l2099:	
;main.c: 74: GIE=1;
	bsf	(95/8),(95)&7
	line	75
	
l2101:	
;main.c: 75: PEIE=1;
	bsf	(94/8),(94)&7
	line	76
	
l612:	
	return
	opt stack 0
GLOBAL	__end_of_serial_init
	__end_of_serial_init:
;; =============== function _serial_init ends ============

	signat	_serial_init,88
	global	_adc_init
psect	text312,local,class=CODE,delta=2
global __ptext312
__ptext312:

;; *************** function _adc_init *****************
;; Defined at:
;;		line 119 in file "C:\Users\ASHOK\Desktop\7 days Workshop\2nd Day\Session 3\PROGRAMS\11.ToT based temperature monitoring\main.c"
;; Parameters:    Size  Location     Type
;;		None
;; Auto vars:     Size  Location     Type
;;		None
;; Return value:  Size  Location     Type
;;		None               void
;; Registers used:
;;		wreg
;; Tracked objects:
;;		On entry : 0/0
;;		On exit  : 0/0
;;		Unchanged: 0/0
;; Data sizes:     COMMON   BANK0   BANK1   BANK3   BANK2
;;      Params:         0       0       0       0       0
;;      Locals:         0       0       0       0       0
;;      Temps:          0       0       0       0       0
;;      Totals:         0       0       0       0       0
;;Total ram usage:        0 bytes
;; Hardware stack levels used:    1
;; This function calls:
;;		Nothing
;; This function is called by:
;;		_main
;; This function uses a non-reentrant model
;;
psect	text312
	file	"C:\Users\ASHOK\Desktop\7 days Workshop\2nd Day\Session 3\PROGRAMS\11.ToT based temperature monitoring\main.c"
	line	119
	global	__size_of_adc_init
	__size_of_adc_init	equ	__end_of_adc_init-_adc_init
	
_adc_init:	
	opt	stack 7
; Regs used in _adc_init: [wreg]
	line	120
	
l2083:	
;main.c: 120: ADCON1=0x8E;
	movlw	(08Eh)
	bsf	status, 5	;RP0=1, select bank1
	bcf	status, 6	;RP1=0, select bank1
	movwf	(159)^080h	;volatile
	line	121
	
l630:	
	return
	opt stack 0
GLOBAL	__end_of_adc_init
	__end_of_adc_init:
;; =============== function _adc_init ends ============

	signat	_adc_init,88
psect	text313,local,class=CODE,delta=2
global __ptext313
__ptext313:
	global	btemp
	btemp set 07Eh

	DABS	1,126,2	;btemp
	global	wtemp0
	wtemp0 set btemp
	end
